target datalayout = "e-m:e-p270:32:32-p271:32:32-p272:64:64-i64:64-i128:128-f80:128-n8:16:32:64-S128"
target triple = "x86_64-pc-linux-gnu"

%struct.OPTARGS = type { i32, i32, i32, i32, ptr, ptr, ptr, ptr, ptr, i32, i32, ptr, [21 x i8], [256 x ptr], ptr, ptr, ptr, ptr }

@stdin = external global ptr, align 8
@.str = private unnamed_addr constant [3 x i8] c"rb\00", align 1
@.str.1 = private unnamed_addr constant [3 x i8] c"rt\00", align 1
@stderr = external global ptr, align 8
@.str.2 = private unnamed_addr constant [21 x i8] c"Cannot open file %s\0A\00", align 1

; Function Attrs: mustprogress uwtable
define hidden noundef i32 @_Z14opt_input_loopP7OPTARGSiPb(ptr noundef %0, i32 noundef %1, ptr noundef %2) #5 {
  %4 = alloca i32, align 4
  %5 = alloca ptr, align 8
  %6 = alloca i32, align 4
  %7 = alloca ptr, align 8
  %8 = alloca ptr, align 8
  %9 = alloca i32, align 4
  store ptr %0, ptr %5, align 8, !tbaa !4
  store i32 %1, ptr %6, align 4, !tbaa !20
  store ptr %2, ptr %7, align 8, !tbaa !21
  %10 = load ptr, ptr %7, align 8, !tbaa !21
  %11 = icmp ne ptr %10, null
  br i1 %11, label %12, label %14

12:                                               ; preds = %3
  %13 = load ptr, ptr %7, align 8, !tbaa !21
  store i8 0, ptr %13, align 1, !tbaa !23
  br label %14

14:                                               ; preds = %12, %3
  %15 = load ptr, ptr %5, align 8, !tbaa !4
  %16 = icmp eq ptr null, %15
  br i1 %16, label %17, label %18

17:                                               ; preds = %14
  store i32 0, ptr %4, align 4
  br label %113

18:                                               ; preds = %14
  %19 = load ptr, ptr %5, align 8, !tbaa !4
  %20 = getelementptr inbounds nuw %struct.OPTARGS, ptr %19, i32 0, i32 8
  %21 = load ptr, ptr %20, align 8, !tbaa !25
  %22 = icmp ne ptr %21, null
  br i1 %22, label %23, label %34

23:                                               ; preds = %18
  %24 = load ptr, ptr %5, align 8, !tbaa !4
  %25 = getelementptr inbounds nuw %struct.OPTARGS, ptr %24, i32 0, i32 8
  %26 = load ptr, ptr %25, align 8, !tbaa !25
  %27 = call i32 @feof(ptr noundef %26) #3
  %28 = icmp ne i32 %27, 0
  br i1 %28, label %34, label %29

29:                                               ; preds = %23
  %30 = load ptr, ptr %5, align 8, !tbaa !4
  %31 = getelementptr inbounds nuw %struct.OPTARGS, ptr %30, i32 0, i32 10
  %32 = load i32, ptr %31, align 4, !tbaa !19
  %33 = add nsw i32 %32, 1
  store i32 %33, ptr %31, align 4, !tbaa !19
  store i32 1, ptr %4, align 4
  br label %113

34:                                               ; preds = %23, %18
  %35 = load ptr, ptr %5, align 8, !tbaa !4
  %36 = getelementptr inbounds nuw %struct.OPTARGS, ptr %35, i32 0, i32 10
  store i32 0, ptr %36, align 4, !tbaa !19
  %37 = load ptr, ptr %5, align 8, !tbaa !4
  %38 = getelementptr inbounds nuw %struct.OPTARGS, ptr %37, i32 0, i32 3
  %39 = load i32, ptr %38, align 4, !tbaa !9
  %40 = icmp eq i32 0, %39
  br i1 %40, label %41, label %50

41:                                               ; preds = %34
  %42 = load ptr, ptr %5, align 8, !tbaa !4
  %43 = getelementptr inbounds nuw %struct.OPTARGS, ptr %42, i32 0, i32 8
  %44 = load ptr, ptr %43, align 8, !tbaa !25
  %45 = icmp eq ptr null, %44
  br i1 %45, label %46, label %50

46:                                               ; preds = %41
  %47 = load ptr, ptr @stdin, align 8, !tbaa !26
  %48 = load ptr, ptr %5, align 8, !tbaa !4
  %49 = getelementptr inbounds nuw %struct.OPTARGS, ptr %48, i32 0, i32 8
  store ptr %47, ptr %49, align 8, !tbaa !25
  store i32 1, ptr %4, align 4
  br label %113

50:                                               ; preds = %41, %34
  %51 = load ptr, ptr %5, align 8, !tbaa !4
  %52 = getelementptr inbounds nuw %struct.OPTARGS, ptr %51, i32 0, i32 8
  %53 = load ptr, ptr %52, align 8, !tbaa !25
  %54 = load ptr, ptr @stdin, align 8, !tbaa !26
  %55 = icmp eq ptr %53, %54
  br i1 %55, label %56, label %57

56:                                               ; preds = %50
  store i32 0, ptr %4, align 4
  br label %113

57:                                               ; preds = %50
  %58 = load ptr, ptr %5, align 8, !tbaa !4
  %59 = getelementptr inbounds nuw %struct.OPTARGS, ptr %58, i32 0, i32 8
  %60 = load ptr, ptr %59, align 8, !tbaa !25
  %61 = icmp ne ptr null, %60
  br i1 %61, label %62, label %67

62:                                               ; preds = %57
  %63 = load ptr, ptr %5, align 8, !tbaa !4
  %64 = getelementptr inbounds nuw %struct.OPTARGS, ptr %63, i32 0, i32 8
  %65 = load ptr, ptr %64, align 8, !tbaa !25
  %66 = call i32 @fclose(ptr noundef %65)
  br label %67

67:                                               ; preds = %62, %57
  %68 = load ptr, ptr %5, align 8, !tbaa !4
  %69 = getelementptr inbounds nuw %struct.OPTARGS, ptr %68, i32 0, i32 9
  %70 = load i32, ptr %69, align 8, !tbaa !17
  %71 = load ptr, ptr %5, align 8, !tbaa !4
  %72 = getelementptr inbounds nuw %struct.OPTARGS, ptr %71, i32 0, i32 3
  %73 = load i32, ptr %72, align 4, !tbaa !9
  %74 = icmp sge i32 %70, %73
  br i1 %74, label %75, label %76

75:                                               ; preds = %67
  store i32 0, ptr %4, align 4
  br label %113

76:                                               ; preds = %67
  call void @llvm.lifetime.start.p0(i64 8, ptr %8) #3
  %77 = load ptr, ptr %5, align 8, !tbaa !4
  %78 = getelementptr inbounds nuw %struct.OPTARGS, ptr %77, i32 0, i32 7
  %79 = load ptr, ptr %78, align 8, !tbaa !16
  %80 = load ptr, ptr %5, align 8, !tbaa !4
  %81 = getelementptr inbounds nuw %struct.OPTARGS, ptr %80, i32 0, i32 9
  %82 = load i32, ptr %81, align 8, !tbaa !17
  %83 = add nsw i32 %82, 1
  store i32 %83, ptr %81, align 8, !tbaa !17
  %84 = sext i32 %82 to i64
  %85 = getelementptr inbounds ptr, ptr %79, i64 %84
  %86 = load ptr, ptr %85, align 8, !tbaa !18
  store ptr %86, ptr %8, align 8, !tbaa !18
  %87 = load ptr, ptr %8, align 8, !tbaa !18
  %88 = load i32, ptr %6, align 4, !tbaa !20
  %89 = icmp ne i32 %88, 0
  br i1 %89, label %90, label %91

90:                                               ; preds = %76
  br label %92

91:                                               ; preds = %76
  br label %92

92:                                               ; preds = %91, %90
  %93 = phi ptr [ @.str, %90 ], [ @.str.1, %91 ]
  %94 = getelementptr inbounds [3 x i8], ptr %93, i64 0, i64 0
  %95 = call noalias ptr @fopen(ptr noundef %87, ptr noundef %94)
  %96 = load ptr, ptr %5, align 8, !tbaa !4
  %97 = getelementptr inbounds nuw %struct.OPTARGS, ptr %96, i32 0, i32 8
  store ptr %95, ptr %97, align 8, !tbaa !25
  %98 = load ptr, ptr %5, align 8, !tbaa !4
  %99 = getelementptr inbounds nuw %struct.OPTARGS, ptr %98, i32 0, i32 8
  %100 = load ptr, ptr %99, align 8, !tbaa !25
  %101 = icmp eq ptr null, %100
  br i1 %101, label %102, label %111

102:                                              ; preds = %92
  %103 = load ptr, ptr @stderr, align 8, !tbaa !26
  %104 = load ptr, ptr %8, align 8, !tbaa !18
  %105 = call i32 (ptr, ptr, ...) @fprintf(ptr noundef %103, ptr noundef @.str.2, ptr noundef %104) #3
  %106 = load ptr, ptr %7, align 8, !tbaa !21
  %107 = icmp ne ptr %106, null
  br i1 %107, label %108, label %110

108:                                              ; preds = %102
  %109 = load ptr, ptr %7, align 8, !tbaa !21
  store i8 1, ptr %109, align 1, !tbaa !23
  br label %110

110:                                              ; preds = %108, %102
  store i32 0, ptr %4, align 4
  store i32 1, ptr %9, align 4
  br label %112

111:                                              ; preds = %92
  store i32 1, ptr %4, align 4
  store i32 1, ptr %9, align 4
  br label %112

112:                                              ; preds = %111, %110
  call void @llvm.lifetime.end.p0(i64 8, ptr %8) #3
  br label %113

113:                                              ; preds = %112, %75, %56, %46, %29, %17
  %114 = load i32, ptr %4, align 4
  ret i32 %114
}