; Function Attrs: mustprogress nofree nounwind uwtable
define hidden noundef range(i32 0, 2) i32 @_Z14opt_input_loopP7OPTARGSiPb(ptr noundef %0, i32 noundef %1, ptr noundef writeonly %2) local_unnamed_addr #5 {
  %.not = icmp eq ptr %2, null
  br i1 %.not, label %5, label %4

4:                                                ; preds = %3
  store i8 0, ptr %2, align 1, !tbaa !18
  br label %5

5:                                                ; preds = %4, %3
  %6 = icmp eq ptr %0, null
  br i1 %6, label %46, label %7

7:                                                ; preds = %5
  %8 = getelementptr inbounds nuw i8, ptr %0, i64 48
  %9 = load ptr, ptr %8, align 8, !tbaa !20
  %.not30 = icmp eq ptr %9, null
  br i1 %.not30, label %16, label %10

10:                                               ; preds = %7
  %11 = tail call i32 @feof(ptr noundef nonnull %9) #30
  %.not31 = icmp eq i32 %11, 0
  br i1 %.not31, label %12, label %16

12:                                               ; preds = %10
  %13 = getelementptr inbounds nuw i8, ptr %0, i64 60
  %14 = load i32, ptr %13, align 4, !tbaa !17
  %15 = add nsw i32 %14, 1
  store i32 %15, ptr %13, align 4, !tbaa !17
  br label %46

16:                                               ; preds = %10, %7
  %17 = getelementptr inbounds nuw i8, ptr %0, i64 60
  store i32 0, ptr %17, align 4, !tbaa !17
  %18 = getelementptr inbounds nuw i8, ptr %0, i64 12
  %19 = load i32, ptr %18, align 4, !tbaa !4
  %20 = icmp eq i32 %19, 0
  %21 = load ptr, ptr %8, align 8, !tbaa !20
  %22 = icmp eq ptr %21, null
  %or.cond = select i1 %20, i1 %22, i1 false
  %23 = load ptr, ptr @stdin, align 8, !tbaa !21
  br i1 %or.cond, label %24, label %thread-pre-split

24:                                               ; preds = %16
  store ptr %23, ptr %8, align 8, !tbaa !20
  br label %46

thread-pre-split:                                 ; preds = %16
  %25 = icmp eq ptr %21, %23
  br i1 %25, label %46, label %26

26:                                               ; preds = %thread-pre-split
  %.not32 = icmp eq ptr %21, null
  br i1 %.not32, label %29, label %27

27:                                               ; preds = %26
  %28 = tail call i32 @fclose(ptr noundef nonnull %21)
  %.pre = load i32, ptr %18, align 4, !tbaa !4
  br label %29

29:                                               ; preds = %27, %26
  %30 = phi i32 [ %.pre, %27 ], [ %19, %26 ]
  %31 = getelementptr inbounds nuw i8, ptr %0, i64 56
  %32 = load i32, ptr %31, align 8, !tbaa !15
  %.not33 = icmp slt i32 %32, %30
  br i1 %.not33, label %33, label %46

33:                                               ; preds = %29
  %34 = getelementptr inbounds nuw i8, ptr %0, i64 40
  %35 = load ptr, ptr %34, align 8, !tbaa !14
  %36 = add nsw i32 %32, 1
  store i32 %36, ptr %31, align 8, !tbaa !15
  %37 = sext i32 %32 to i64
  %38 = getelementptr inbounds ptr, ptr %35, i64 %37
  %39 = load ptr, ptr %38, align 8, !tbaa !16
  %.not34 = icmp eq i32 %1, 0
  %.str..str.1 = select i1 %.not34, ptr @.str.1, ptr @.str
  %40 = tail call noalias ptr @fopen(ptr noundef %39, ptr noundef nonnull %.str..str.1)
  store ptr %40, ptr %8, align 8, !tbaa !20
  %41 = icmp eq ptr %40, null
  br i1 %41, label %42, label %46

42:                                               ; preds = %33
  %43 = load ptr, ptr @stderr, align 8, !tbaa !21
  %44 = tail call i32 (ptr, ptr, ...) @fprintf(ptr noundef %43, ptr noundef nonnull @.str.2, ptr noundef %39) #31
  br i1 %.not, label %46, label %45

45:                                               ; preds = %42
  store i8 1, ptr %2, align 1, !tbaa !18
  br label %46

46:                                               ; preds = %45, %42, %33, %29, %thread-pre-split, %5, %24, %12
  %.0 = phi i32 [ 1, %24 ], [ 1, %12 ], [ 0, %5 ], [ 0, %thread-pre-split ], [ 0, %29 ], [ 0, %45 ], [ 0, %42 ], [ 1, %33 ]
  ret i32 %.0
}